target datalayout = "e-m:e-p270:32:32-p271:32:32-p272:64:64-i64:64-i128:128-f80:128-n8:16:32:64-S128"
target triple = "x86_64-pc-linux-gnu"

%class.G1AllocRegion = type <{ ptr, ptr, i32, [4 x i8], ptr, i32, [4 x i8] }>

@_ZTV13G1AllocRegion = hidden unnamed_addr constant { [7 x ptr] } { [7 x ptr] [ptr null, ptr null, ptr @_ZN13G1AllocRegion6retireEb, ptr @__cxa_pure_virtual, ptr @__cxa_pure_virtual, ptr @_ZN13G1AllocRegion4initEv, ptr @_ZN13G1AllocRegion7releaseEv] }, align 8

; Function Attrs: mustprogress nounwind uwtable
define hidden void @_ZN13G1AllocRegionC2EPKcj(ptr noundef nonnull align 8 dereferenceable(36) %0, ptr noundef %1, i32 noundef %2) unnamed_addr #1 align 2 {
  %4 = alloca ptr, align 8
  %5 = alloca ptr, align 8
  %6 = alloca i32, align 4
  store ptr %0, ptr %4, align 8
  store ptr %1, ptr %5, align 8
  store i32 %2, ptr %6, align 4
  %7 = load ptr, ptr %4, align 8
  store ptr getelementptr inbounds inrange(-16, 40) ({ [7 x ptr] }, ptr @_ZTV13G1AllocRegion, i32 0, i32 0, i32 2), ptr %7, align 8
  %8 = getelementptr inbounds %class.G1AllocRegion, ptr %7, i32 0, i32 1
  store volatile ptr null, ptr %8, align 8
  %9 = getelementptr inbounds %class.G1AllocRegion, ptr %7, i32 0, i32 2
  store i32 0, ptr %9, align 8
  %10 = getelementptr inbounds %class.G1AllocRegion, ptr %7, i32 0, i32 4
  %11 = load ptr, ptr %5, align 8
  store ptr %11, ptr %10, align 8
  %12 = getelementptr inbounds %class.G1AllocRegion, ptr %7, i32 0, i32 5
  %13 = load i32, ptr %6, align 4
  store i32 %13, ptr %12, align 8
  ret void
}