; Function Attrs: mustprogress nofree norecurse nounwind memory(argmem: readwrite, inaccessiblemem: readwrite) uwtable
define hidden void @_ZN13G1AllocRegionC2EPKcj(ptr noundef nonnull align 8 dereferenceable(36) %0, ptr noundef %1, i32 noundef %2) unnamed_addr #3 align 2 {
  store ptr getelementptr inbounds inrange(-16, 40) (i8, ptr @_ZTV13G1AllocRegion, i64 16), ptr %0, align 8
  %4 = getelementptr inbounds i8, ptr %0, i64 8
  store volatile ptr null, ptr %4, align 8
  %5 = getelementptr inbounds i8, ptr %0, i64 16
  store i32 0, ptr %5, align 8
  %6 = getelementptr inbounds i8, ptr %0, i64 24
  store ptr %1, ptr %6, align 8
  %7 = getelementptr inbounds i8, ptr %0, i64 32
  store i32 %2, ptr %7, align 8
  ret void
}